target datalayout = "e-m:e-p270:32:32-p271:32:32-p272:64:64-i64:64-i128:128-f80:128-n8:16:32:64-S128"
target triple = "x86_64-unknown-linux-gnu"

%"class.icu_75::UObject" = type { ptr }
%"class.icu_75::FieldPosition" = type <{ %"class.icu_75::UObject", i32, i32, i32, [4 x i8] }>

; Function Attrs: mustprogress nounwind uwtable
define linkonce_odr void @_ZN6icu_7513FieldPosition11setEndIndexEi(ptr noundef nonnull align 8 dereferenceable(20) %this, i32 noundef %ei) #0 comdat align 2 {
entry:
  %this.addr = alloca ptr, align 8
  %ei.addr = alloca i32, align 4
  store ptr %this, ptr %this.addr, align 8
  store i32 %ei, ptr %ei.addr, align 4
  %this1 = load ptr, ptr %this.addr, align 8
  %0 = load i32, ptr %ei.addr, align 4
  %fEndIndex = getelementptr inbounds %"class.icu_75::FieldPosition", ptr %this1, i32 0, i32 3
  store i32 %0, ptr %fEndIndex, align 8
  ret void
}

; Function Attrs: mustprogress nounwind uwtable
define linkonce_odr void @_ZN6icu_7513FieldPosition13setBeginIndexEi(ptr noundef nonnull align 8 dereferenceable(20) %this, i32 noundef %bi) #0 comdat align 2 {
entry:
  %this.addr = alloca ptr, align 8
  %bi.addr = alloca i32, align 4
  store ptr %this, ptr %this.addr, align 8
  store i32 %bi, ptr %bi.addr, align 4
  %this1 = load ptr, ptr %this.addr, align 8
  %0 = load i32, ptr %bi.addr, align 4
  %fBeginIndex = getelementptr inbounds %"class.icu_75::FieldPosition", ptr %this1, i32 0, i32 2
  store i32 %0, ptr %fBeginIndex, align 4
  ret void
}

; Function Attrs: mustprogress nounwind uwtable
define linkonce_odr noundef i32 @_ZNK6icu_7513FieldPosition11getEndIndexEv(ptr noundef nonnull align 8 dereferenceable(20) %this) #0 comdat align 2 {
entry:
  %this.addr = alloca ptr, align 8
  store ptr %this, ptr %this.addr, align 8
  %this1 = load ptr, ptr %this.addr, align 8
  %fEndIndex = getelementptr inbounds %"class.icu_75::FieldPosition", ptr %this1, i32 0, i32 3
  %0 = load i32, ptr %fEndIndex, align 8
  ret i32 %0
}

; Function Attrs: mustprogress nounwind uwtable
define linkonce_odr noundef i32 @_ZNK6icu_7513FieldPosition13getBeginIndexEv(ptr noundef nonnull align 8 dereferenceable(20) %this) #0 comdat align 2 {
entry:
  %this.addr = alloca ptr, align 8
  store ptr %this, ptr %this.addr, align 8
  %this1 = load ptr, ptr %this.addr, align 8
  %fBeginIndex = getelementptr inbounds %"class.icu_75::FieldPosition", ptr %this1, i32 0, i32 2
  %0 = load i32, ptr %fBeginIndex, align 4
  ret i32 %0
}

; Function Attrs: mustprogress nounwind uwtable
define internal noundef signext i8 @_ZL9U_FAILURE10UErrorCode(i32 noundef %code) #0 {
entry:
  %code.addr = alloca i32, align 4
  store i32 %code, ptr %code.addr, align 4
  %0 = load i32, ptr %code.addr, align 4
  %cmp = icmp sgt i32 %0, 0
  %conv = zext i1 %cmp to i8
  ret i8 %conv
}

; Function Attrs: mustprogress uwtable
define noundef nonnull align 8 dereferenceable(64) ptr @_ZN6icu_7517QuantityFormatter6formatERKNS_15SimpleFormatterERKNS_13UnicodeStringERS4_RNS_13FieldPositionER10UErrorCode(ptr noundef nonnull align 8 dereferenceable(72) %pattern, ptr noundef nonnull align 8 dereferenceable(64) %value, ptr noundef nonnull align 8 dereferenceable(64) %appendTo, ptr noundef nonnull align 8 dereferenceable(20) %pos, ptr noundef nonnull align 4 dereferenceable(4) %status) #1 align 2 {
entry:
  %retval = alloca ptr, align 8
  %pattern.addr = alloca ptr, align 8
  %value.addr = alloca ptr, align 8
  %appendTo.addr = alloca ptr, align 8
  %pos.addr = alloca ptr, align 8
  %status.addr = alloca ptr, align 8
  %param = alloca ptr, align 8
  %offset = alloca i32, align 4
  store ptr %pattern, ptr %pattern.addr, align 8
  store ptr %value, ptr %value.addr, align 8
  store ptr %appendTo, ptr %appendTo.addr, align 8
  store ptr %pos, ptr %pos.addr, align 8
  store ptr %status, ptr %status.addr, align 8
  %0 = load ptr, ptr %status.addr, align 8
  %1 = load i32, ptr %0, align 4
  %call = call noundef signext i8 @_ZL9U_FAILURE10UErrorCode(i32 noundef %1)
  %tobool = icmp ne i8 %call, 0
  br i1 %tobool, label %if.then, label %if.end

if.then:                                          ; preds = %entry
  %2 = load ptr, ptr %appendTo.addr, align 8
  store ptr %2, ptr %retval, align 8
  br label %return

if.end:                                           ; preds = %entry
  %3 = load ptr, ptr %value.addr, align 8
  store ptr %3, ptr %param, align 8
  %4 = load ptr, ptr %pattern.addr, align 8
  %5 = load ptr, ptr %appendTo.addr, align 8
  %6 = load ptr, ptr %status.addr, align 8
  %call1 = call noundef nonnull align 8 dereferenceable(64) ptr @_ZNK6icu_7515SimpleFormatter15formatAndAppendEPKPKNS_13UnicodeStringEiRS1_PiiR10UErrorCode(ptr noundef nonnull align 8 dereferenceable(72) %4, ptr noundef %param, i32 noundef 1, ptr noundef nonnull align 8 dereferenceable(64) %5, ptr noundef %offset, i32 noundef 1, ptr noundef nonnull align 4 dereferenceable(4) %6)
  %7 = load ptr, ptr %pos.addr, align 8
  %call2 = call noundef i32 @_ZNK6icu_7513FieldPosition13getBeginIndexEv(ptr noundef nonnull align 8 dereferenceable(20) %7)
  %cmp = icmp ne i32 %call2, 0
  br i1 %cmp, label %if.then5, label %lor.lhs.false

lor.lhs.false:                                    ; preds = %if.end
  %8 = load ptr, ptr %pos.addr, align 8
  %call3 = call noundef i32 @_ZNK6icu_7513FieldPosition11getEndIndexEv(ptr noundef nonnull align 8 dereferenceable(20) %8)
  %cmp4 = icmp ne i32 %call3, 0
  br i1 %cmp4, label %if.then5, label %if.end12

if.then5:                                         ; preds = %lor.lhs.false, %if.end
  %9 = load i32, ptr %offset, align 4
  %cmp6 = icmp sge i32 %9, 0
  br i1 %cmp6, label %if.then7, label %if.else

if.then7:                                         ; preds = %if.then5
  %10 = load ptr, ptr %pos.addr, align 8
  %11 = load ptr, ptr %pos.addr, align 8
  %call8 = call noundef i32 @_ZNK6icu_7513FieldPosition13getBeginIndexEv(ptr noundef nonnull align 8 dereferenceable(20) %11)
  %12 = load i32, ptr %offset, align 4
  %add = add nsw i32 %call8, %12
  call void @_ZN6icu_7513FieldPosition13setBeginIndexEi(ptr noundef nonnull align 8 dereferenceable(20) %10, i32 noundef %add)
  %13 = load ptr, ptr %pos.addr, align 8
  %14 = load ptr, ptr %pos.addr, align 8
  %call9 = call noundef i32 @_ZNK6icu_7513FieldPosition11getEndIndexEv(ptr noundef nonnull align 8 dereferenceable(20) %14)
  %15 = load i32, ptr %offset, align 4
  %add10 = add nsw i32 %call9, %15
  call void @_ZN6icu_7513FieldPosition11setEndIndexEi(ptr noundef nonnull align 8 dereferenceable(20) %13, i32 noundef %add10)
  br label %if.end11

if.else:                                          ; preds = %if.then5
  %16 = load ptr, ptr %pos.addr, align 8
  call void @_ZN6icu_7513FieldPosition13setBeginIndexEi(ptr noundef nonnull align 8 dereferenceable(20) %16, i32 noundef 0)
  %17 = load ptr, ptr %pos.addr, align 8
  call void @_ZN6icu_7513FieldPosition11setEndIndexEi(ptr noundef nonnull align 8 dereferenceable(20) %17, i32 noundef 0)
  br label %if.end11

if.end11:                                         ; preds = %if.else, %if.then7
  br label %if.end12

if.end12:                                         ; preds = %if.end11, %lor.lhs.false
  %18 = load ptr, ptr %appendTo.addr, align 8
  store ptr %18, ptr %retval, align 8
  br label %return

return:                                           ; preds = %if.end12, %if.then
  %19 = load ptr, ptr %retval, align 8
  ret ptr %19
}