; Function Attrs: mustprogress uwtable
define noundef nonnull align 8 dereferenceable(64) ptr @_ZN6icu_7517QuantityFormatter6formatERKNS_15SimpleFormatterERKNS_13UnicodeStringERS4_RNS_13FieldPositionER10UErrorCode(ptr noundef nonnull align 8 dereferenceable(72) %pattern, ptr noundef nonnull align 8 dereferenceable(64) %value, ptr noundef nonnull returned align 8 dereferenceable(64) %appendTo, ptr nocapture noundef nonnull align 8 dereferenceable(20) %pos, ptr noundef nonnull align 4 dereferenceable(4) %status) local_unnamed_addr #1 align 2 {
entry:
  %param = alloca ptr, align 8
  %offset = alloca i32, align 4
  %0 = load i32, ptr %status, align 4
  %cmp.i = icmp slt i32 %0, 1
  br i1 %cmp.i, label %if.end, label %return

if.end:                                           ; preds = %entry
  store ptr %value, ptr %param, align 8
  %call1 = call noundef nonnull align 8 dereferenceable(64) ptr @_ZNK6icu_7515SimpleFormatter15formatAndAppendEPKPKNS_13UnicodeStringEiRS1_PiiR10UErrorCode(ptr noundef nonnull align 8 dereferenceable(72) %pattern, ptr noundef nonnull %param, i32 noundef 1, ptr noundef nonnull align 8 dereferenceable(64) %appendTo, ptr noundef nonnull %offset, i32 noundef 1, ptr noundef nonnull align 4 dereferenceable(4) %status)
  %fBeginIndex.i = getelementptr inbounds i8, ptr %pos, i64 12
  %1 = load i32, ptr %fBeginIndex.i, align 4
  %cmp.not = icmp eq i32 %1, 0
  %fEndIndex.i = getelementptr inbounds i8, ptr %pos, i64 16
  %2 = load i32, ptr %fEndIndex.i, align 8
  %cmp4.not = icmp eq i32 %2, 0
  %or.cond = select i1 %cmp.not, i1 %cmp4.not, i1 false
  br i1 %or.cond, label %return, label %if.then5

if.then5:                                         ; preds = %if.end
  %3 = load i32, ptr %offset, align 4
  %cmp6 = icmp sgt i32 %3, -1
  br i1 %cmp6, label %if.then7, label %if.else

if.then7:                                         ; preds = %if.then5
  %add = add nsw i32 %3, %1
  store i32 %add, ptr %fBeginIndex.i, align 4
  %add10 = add nsw i32 %2, %3
  br label %return.sink.split

if.else:                                          ; preds = %if.then5
  store i32 0, ptr %fBeginIndex.i, align 4
  br label %return.sink.split

return.sink.split:                                ; preds = %if.then7, %if.else
  %.sink = phi i32 [ 0, %if.else ], [ %add10, %if.then7 ]
  store i32 %.sink, ptr %fEndIndex.i, align 8
  br label %return

return:                                           ; preds = %return.sink.split, %if.end, %entry
  ret ptr %appendTo
}